; Function Attrs: mustprogress nounwind uwtable
define dso_local void @_ZN4node4quic11TokenSecretC2Ev(ptr noundef nonnull align 8 dereferenceable(24) %this) unnamed_addr #3 align 2 {
entry:
  store ptr getelementptr inbounds ({ [10 x ptr] }, ptr @_ZTVN4node4quic11TokenSecretE, i64 0, i32 0, i64 2), ptr %this, align 8
  %buf_ = getelementptr inbounds i8, ptr %this, i64 8
  tail call void @llvm.memset.p0.i64(ptr noundef nonnull align 8 dereferenceable(16) %buf_, i8 0, i64 16, i1 false)
  %call.i = tail call i8 @_ZN4node6crypto6CSPRNGEPvm(ptr noundef nonnull %buf_, i64 noundef 16) #17
  %0 = and i8 %call.i, 1
  %tobool.i.not.i = icmp eq i8 %0, 0
  br i1 %tobool.i.not.i, label %do.body5.i, label %_ZN4node4quic11TokenSecret5ResetEv.exit

do.body5.i:                                       ; preds = %entry
  tail call void @_ZN4node6AssertERKNS_13AssertionInfoE(ptr noundef nonnull align 8 dereferenceable(24) @_ZZN4node4quic11TokenSecret5ResetEvE4args) #17
  tail call void @abort() #18
  unreachable

_ZN4node4quic11TokenSecret5ResetEv.exit:          ; preds = %entry
  ret void
}